; Function Attrs: mustprogress nofree norecurse nosync nounwind willreturn memory(argmem: read) uwtable
define noundef ptr @_Z24grpc_jwt_claims_audiencePK15grpc_jwt_claims(ptr noundef readonly %claims) local_unnamed_addr #5 {
entry:
  %cmp = icmp eq ptr %claims, null
  br i1 %cmp, label %return, label %if.end

if.end:                                           ; preds = %entry
  %aud = getelementptr inbounds i8, ptr %claims, i64 16
  %0 = load ptr, ptr %aud, align 8
  br label %return

return:                                           ; preds = %entry, %if.end
  %retval.0 = phi ptr [ %0, %if.end ], [ null, %entry ]
  ret ptr %retval.0
}